(i__main__
LogFile
p0
(dp1
S'_installed_files'
p2
(dp3
S'../../../Simulation/ElecSimV3/EvtMixingAlg/amd64_linux26/libEvtMixingAlg.so'
p4
S'../../../../InstallArea/amd64_linux26/lib/libEvtMixingAlg.so'
p5
sS'../Simulation/ElecSimV3/EvtMixingAlg/python'
p6
(dp7
S'../../../Simulation/ElecSimV3/EvtMixingAlg/python/EvtMixingAlg/__init__.py'
p8
S'../../../../InstallArea/python/EvtMixingAlg/__init__.py'
p9
sssb.