(i__main__
LogFile
p0
(dp1
S'_installed_files'
p2
(dp3
S'../../../CommonSvc/RandomSvc/amd64_linux26/libRandomSvc.so'
p4
S'../../../InstallArea/amd64_linux26/lib/libRandomSvc.so'
p5
sS'../CommonSvc/RandomSvc/python'
p6
(dp7
S'../../../CommonSvc/RandomSvc/python/RandomSvc/__init__.py'
p8
S'../../../InstallArea/python/RandomSvc/__init__.py'
p9
sssb.