(i__main__
LogFile
p0
(dp1
S'_installed_files'
p2
(dp3
S'../../../Reconstruction/Deconvolution/amd64_linux26/libDeconvolution.so'
p4
S'../../../InstallArea/amd64_linux26/lib/libDeconvolution.so'
p5
ssb.