(i__main__
LogFile
p0
(dp1
S'_installed_files'
p2
(dp3
S'../../../Simulation/ElecSimV3/ReadOutAlg/amd64_linux26/libReadOutAlg.so'
p4
S'../../../../InstallArea/amd64_linux26/lib/libReadOutAlg.so'
p5
sS'../Simulation/ElecSimV3/ReadOutAlg/python'
p6
(dp7
S'../../../Simulation/ElecSimV3/ReadOutAlg/python/ReadOutAlg/__init__.py'
p8
S'../../../../InstallArea/python/ReadOutAlg/__init__.py'
p9
sssb.