(i__main__
LogFile
p0
(dp1
S'_installed_files'
p2
(dp3
S'../../Utilities/JunoTimer/JunoTimer'
p4
(dp5
S'../../../Utilities/JunoTimer/JunoTimer/IJunoTimerSvc.h'
p6
S'../../../InstallArea/include/JunoTimer/IJunoTimerSvc.h'
p7
sS'../../../Utilities/JunoTimer/JunoTimer/JunoTimer.h'
p8
S'../../../InstallArea/include/JunoTimer/JunoTimer.h'
p9
ssS'../../../Utilities/JunoTimer/amd64_linux26/libJunoTimer.so'
p10
S'../../../InstallArea/amd64_linux26/lib/libJunoTimer.so'
p11
sS'../Utilities/JunoTimer/python'
p12
(dp13
S'../../../Utilities/JunoTimer/python/JunoTimer/AlgTimerWrapper.py'
p14
S'../../../InstallArea/python/JunoTimer/AlgTimerWrapper.py'
p15
sS'../../../Utilities/JunoTimer/python/JunoTimer/__init__.py'
p16
S'../../../InstallArea/python/JunoTimer/__init__.py'
p17
sssb.