(i__main__
LogFile
p0
(dp1
S'_installed_files'
p2
(dp3
S'../../../Reconstruction/TTTracking/amd64_linux26/libTTTrackingAlg.so'
p4
S'../../../InstallArea/amd64_linux26/lib/libTTTrackingAlg.so'
p5
sS'../Reconstruction/TTTracking/python'
p6
(dp7
S'../../../Reconstruction/TTTracking/python/TTTrackingAlg/__init__.py'
p8
S'../../../InstallArea/python/TTTrackingAlg/__init__.py'
p9
sssb.