(i__main__
LogFile
p0
(dp1
S'_installed_files'
p2
(dp3
S'../../../CommonSvc/JobInfoSvc/amd64_linux26/libJobInfoSvc.so'
p4
S'../../../InstallArea/amd64_linux26/lib/libJobInfoSvc.so'
p5
sS'../../CommonSvc/JobInfoSvc/JobInfoSvc'
p6
(dp7
S'../../../CommonSvc/JobInfoSvc/JobInfoSvc/JobInfoSvc.h'
p8
S'../../../InstallArea/include/JobInfoSvc/JobInfoSvc.h'
p9
sssb.