(i__main__
LogFile
p0
(dp1
S'_installed_files'
p2
(dp3
S'../../../Simulation/ElecSimV3/PMTSimAlg/amd64_linux26/libPMTSimAlg.so'
p4
S'../../../../InstallArea/amd64_linux26/lib/libPMTSimAlg.so'
p5
sS'../Simulation/ElecSimV3/PMTSimAlg/python'
p6
(dp7
S'../../../Simulation/ElecSimV3/PMTSimAlg/python/PMTSimAlg/__init__.py'
p8
S'../../../../InstallArea/python/PMTSimAlg/__init__.py'
p9
sssb.