(i__main__
LogFile
p0
(dp1
S'_installed_files'
p2
(dp3
S'../../../Simulation/DetSimV2/G4Svc/amd64_linux26/libG4Svc.so'
p4
S'../../../../InstallArea/amd64_linux26/lib/libG4Svc.so'
p5
sS'../../Simulation/DetSimV2/G4Svc/G4Svc'
p6
(dp7
S'../../../Simulation/DetSimV2/G4Svc/G4Svc/G4Svc.h'
p8
S'../../../../InstallArea/include/G4Svc/G4Svc.h'
p9
sS'../../../Simulation/DetSimV2/G4Svc/G4Svc/IG4Svc.h'
p10
S'../../../../InstallArea/include/G4Svc/IG4Svc.h'
p11
sS'../../../Simulation/DetSimV2/G4Svc/G4Svc/G4SvcRunManager.h'
p12
S'../../../../InstallArea/include/G4Svc/G4SvcRunManager.h'
p13
sssb.