(i__main__
LogFile
p0
(dp1
S'_installed_files'
p2
(dp3
S'../../DataModel/GenEventV2/Event'
p4
(dp5
S'../../../DataModel/GenEventV2/Event/GenEvent.h'
p6
S'../../../InstallArea/include/Event/GenEvent.h'
p7
sS'../../../DataModel/GenEventV2/Event/GenHeader.h'
p8
S'../../../InstallArea/include/Event/GenHeader.h'
p9
ssS'../../../DataModel/GenEventV2/amd64_linux26/libGenEventV2.so'
p10
S'../../../InstallArea/amd64_linux26/lib/libGenEventV2.so'
p11
ssb.