(i__main__
LogFile
p0
(dp1
S'_installed_files'
p2
(dp3
S'../../../Utilities/InputReviser/amd64_linux26/libInputReviser.so'
p4
S'../../../InstallArea/amd64_linux26/lib/libInputReviser.so'
p5
sS'../../Utilities/InputReviser/InputReviser'
p6
(dp7
S'../../../Utilities/InputReviser/InputReviser/InputReviser.h'
p8
S'../../../InstallArea/include/InputReviser/InputReviser.h'
p9
sssb.