(i__main__
LogFile
p0
(dp1
S'_installed_files'
p2
(dp3
S'../../EventDisplay/VisClient/VisClient'
p4
(dp5
S'../../../EventDisplay/VisClient/VisClient/VisHelp.h'
p6
S'../../../InstallArea/include/VisClient/VisHelp.h'
p7
sS'../../../EventDisplay/VisClient/VisClient/VisClient.h'
p8
S'../../../InstallArea/include/VisClient/VisClient.h'
p9
ssS'../../../EventDisplay/VisClient/amd64_linux26/serena.exe'
p10
S'../../../InstallArea/amd64_linux26/bin/serena.exe'
p11
sS'../../../EventDisplay/VisClient/amd64_linux26/libVisClient.so'
p12
S'../../../InstallArea/amd64_linux26/lib/libVisClient.so'
p13
ssb.