(i__main__
LogFile
p0
(dp1
S'_installed_files'
p2
(dp3
S'../Reconstruction/LsqMuonRecTool/python'
p4
(dp5
S'../../../Reconstruction/LsqMuonRecTool/python/LsqMuonRecTool/__init__.py'
p6
S'../../../InstallArea/python/LsqMuonRecTool/__init__.py'
p7
ssS'../../../Reconstruction/LsqMuonRecTool/amd64_linux26/libLsqMuonRecTool.so'
p8
S'../../../InstallArea/amd64_linux26/lib/libLsqMuonRecTool.so'
p9
ssb.