(i__main__
LogFile
p0
(dp1
S'_installed_files'
p2
(dp3
S'../../Detector/Identifier/Identifier'
p4
(dp5
S'../../../Detector/Identifier/Identifier/CdID.h'
p6
S'../../../InstallArea/include/Identifier/CdID.h'
p7
sS'../../../Detector/Identifier/Identifier/JunoDetectorID.h'
p8
S'../../../InstallArea/include/Identifier/JunoDetectorID.h'
p9
sS'../../../Detector/Identifier/Identifier/WpID.h'
p10
S'../../../InstallArea/include/Identifier/WpID.h'
p11
sS'../../../Detector/Identifier/Identifier/TtID.h'
p12
S'../../../InstallArea/include/Identifier/TtID.h'
p13
sS'../../../Detector/Identifier/Identifier/Identifier.h'
p14
S'../../../InstallArea/include/Identifier/Identifier.h'
p15
ssS'../../../Detector/Identifier/amd64_linux26/libIdentifier.so'
p16
S'../../../InstallArea/amd64_linux26/lib/libIdentifier.so'
p17
ssb.