(i__main__
LogFile
p0
(dp1
S'_installed_files'
p2
(dp3
S'../DataModel/DataRegistritionSvc/python'
p4
(dp5
S'../../../DataModel/DataRegistritionSvc/python/DataRegistritionSvc/__init__.py'
p6
S'../../../InstallArea/python/DataRegistritionSvc/__init__.py'
p7
ssS'../../DataModel/DataRegistritionSvc/DataRegistritionSvc'
p8
(dp9
S'../../../DataModel/DataRegistritionSvc/DataRegistritionSvc/DataRegistritionSvc.h'
p10
S'../../../InstallArea/include/DataRegistritionSvc/DataRegistritionSvc.h'
p11
ssS'../../../DataModel/DataRegistritionSvc/amd64_linux26/libDataRegistritionSvc.so'
p12
S'../../../InstallArea/amd64_linux26/lib/libDataRegistritionSvc.so'
p13
ssb.