(i__main__
LogFile
p0
(dp1
S'_installed_files'
p2
(dp3
S'../../../Simulation/DetSimV2/MCParamsSvc/amd64_linux26/libMCParamsSvc.so'
p4
S'../../../../InstallArea/amd64_linux26/lib/libMCParamsSvc.so'
p5
sS'../../../Simulation/DetSimV2/MCParamsSvc/amd64_linux26/libTestMCParamsSvc.so'
p6
S'../../../../InstallArea/amd64_linux26/lib/libTestMCParamsSvc.so'
p7
sS'../../Simulation/DetSimV2/MCParamsSvc/MCParamsSvc'
p8
(dp9
S'../../../Simulation/DetSimV2/MCParamsSvc/MCParamsSvc/IMCParamsSvc.hh'
p10
S'../../../../InstallArea/include/MCParamsSvc/IMCParamsSvc.hh'
p11
sssb.