(i__main__
LogFile
p0
(dp1
S'_installed_files'
p2
(dp3
S'../../DataModel/PhyEvent/Event'
p4
(dp5
S'../../../DataModel/PhyEvent/Event/PhyEvent.obj2doth'
p6
S'../../../InstallArea/include/Event/PhyEvent.obj2doth'
p7
sS'../../../DataModel/PhyEvent/Event/PhyHeader.obj2doth'
p8
S'../../../InstallArea/include/Event/PhyHeader.obj2doth'
p9
sS'../../../DataModel/PhyEvent/Event/PhyEvent.h'
p10
S'../../../InstallArea/include/Event/PhyEvent.h'
p11
sS'../../../DataModel/PhyEvent/Event/PhyHeader.h'
p12
S'../../../InstallArea/include/Event/PhyHeader.h'
p13
ssS'../../../DataModel/PhyEvent/amd64_linux26/libPhyEvent.so'
p14
S'../../../InstallArea/amd64_linux26/lib/libPhyEvent.so'
p15
ssb.