(i__main__
LogFile
p0
(dp1
S'_installed_files'
p2
(dp3
S'../Simulation/ElecSimV3/PreTrgAlg/python'
p4
(dp5
S'../../../Simulation/ElecSimV3/PreTrgAlg/python/PreTrgAlg/__init__.py'
p6
S'../../../../InstallArea/python/PreTrgAlg/__init__.py'
p7
ssS'../../../Simulation/ElecSimV3/PreTrgAlg/amd64_linux26/libPreTrgAlg.so'
p8
S'../../../../InstallArea/amd64_linux26/lib/libPreTrgAlg.so'
p9
ssb.