(i__main__
LogFile
p0
(dp1
S'_installed_files'
p2
(dp3
S'../Simulation/DetSimV2/MCGlobalTimeSvc/python'
p4
(dp5
S'../../../Simulation/DetSimV2/MCGlobalTimeSvc/python/MCGlobalTimeSvc/__init__.py'
p6
S'../../../../InstallArea/python/MCGlobalTimeSvc/__init__.py'
p7
ssS'../../Simulation/DetSimV2/MCGlobalTimeSvc/MCGlobalTimeSvc'
p8
(dp9
S'../../../Simulation/DetSimV2/MCGlobalTimeSvc/MCGlobalTimeSvc/IMCGlobalTimeSvc.h'
p10
S'../../../../InstallArea/include/MCGlobalTimeSvc/IMCGlobalTimeSvc.h'
p11
ssS'../../../Simulation/DetSimV2/MCGlobalTimeSvc/amd64_linux26/libMCGlobalTimeSvc.so'
p12
S'../../../../InstallArea/amd64_linux26/lib/libMCGlobalTimeSvc.so'
p13
ssb.