(i__main__
LogFile
p0
(dp1
S'_installed_files'
p2
(dp3
S'../../../DataModel/CalibEvent/amd64_linux26/libCalibEvent.so'
p4
S'../../../InstallArea/amd64_linux26/lib/libCalibEvent.so'
p5
sS'../../DataModel/CalibEvent/Event'
p6
(dp7
S'../../../DataModel/CalibEvent/Event/CalibHeader.h'
p8
S'../../../InstallArea/include/Event/CalibHeader.h'
p9
sS'../../../DataModel/CalibEvent/Event/CalibEvent.obj2doth'
p10
S'../../../InstallArea/include/Event/CalibEvent.obj2doth'
p11
sS'../../../DataModel/CalibEvent/Event/CalibPMTChannel.obj2doth'
p12
S'../../../InstallArea/include/Event/CalibPMTChannel.obj2doth'
p13
sS'../../../DataModel/CalibEvent/Event/CalibHeader.obj2doth'
p14
S'../../../InstallArea/include/Event/CalibHeader.obj2doth'
p15
sS'../../../DataModel/CalibEvent/Event/TTCalibEvent.h'
p16
S'../../../InstallArea/include/Event/TTCalibEvent.h'
p17
sS'../../../DataModel/CalibEvent/Event/CalibPMTChannel.h'
p18
S'../../../InstallArea/include/Event/CalibPMTChannel.h'
p19
sS'../../../DataModel/CalibEvent/Event/CalibEvent.h'
p20
S'../../../InstallArea/include/Event/CalibEvent.h'
p21
sS'../../../DataModel/CalibEvent/Event/TTCalibEvent.obj2doth'
p22
S'../../../InstallArea/include/Event/TTCalibEvent.obj2doth'
p23
sS'../../../DataModel/CalibEvent/Event/CalibTTChannel.obj2doth'
p24
S'../../../InstallArea/include/Event/CalibTTChannel.obj2doth'
p25
sS'../../../DataModel/CalibEvent/Event/CalibTTChannel.h'
p26
S'../../../InstallArea/include/Event/CalibTTChannel.h'
p27
sssb.