(i__main__
LogFile
p0
(dp1
S'_installed_files'
p2
(dp3
S'../Reconstruction/PushAndPull/python'
p4
(dp5
S'../../../Reconstruction/PushAndPull/python/PushAndPullAlg/__init__.py'
p6
S'../../../InstallArea/python/PushAndPullAlg/__init__.py'
p7
ssS'../../../Reconstruction/PushAndPull/amd64_linux26/libPushAndPullAlg.so'
p8
S'../../../InstallArea/amd64_linux26/lib/libPushAndPullAlg.so'
p9
ssb.