(i__main__
LogFile
p0
(dp1
S'_installed_files'
p2
(dp3
S'../../../DataModel/Context/amd64_linux26/test_Context_read.exe'
p4
S'../../../InstallArea/amd64_linux26/bin/test_Context_read.exe'
p5
sS'../../DataModel/Context/Context'
p6
(dp7
S'../../../DataModel/Context/Context/TimeStamp.h'
p8
S'../../../InstallArea/include/Context/TimeStamp.h'
p9
ssS'../../../DataModel/Context/amd64_linux26/libContext.so'
p10
S'../../../InstallArea/amd64_linux26/lib/libContext.so'
p11
sS'../../../DataModel/Context/amd64_linux26/test_Context_write.exe'
p12
S'../../../InstallArea/amd64_linux26/bin/test_Context_write.exe'
p13
ssb.