(i__main__
LogFile
p0
(dp1
S'_installed_files'
p2
(dp3
S'../../Reconstruction/RecCdMuonAlg/RecCdMuonAlg'
p4
(dp5
S'../../../Reconstruction/RecCdMuonAlg/RecCdMuonAlg/Params.h'
p6
S'../../../InstallArea/include/RecCdMuonAlg/Params.h'
p7
sS'../../../Reconstruction/RecCdMuonAlg/RecCdMuonAlg/IReconTool.h'
p8
S'../../../InstallArea/include/RecCdMuonAlg/IReconTool.h'
p9
sS'../../../Reconstruction/RecCdMuonAlg/RecCdMuonAlg/PmtProp.h'
p10
S'../../../InstallArea/include/RecCdMuonAlg/PmtProp.h'
p11
ssS'../../../Reconstruction/RecCdMuonAlg/amd64_linux26/libRecCdMuonAlg.so'
p12
S'../../../InstallArea/amd64_linux26/lib/libRecCdMuonAlg.so'
p13
ssb.