(i__main__
LogFile
p0
(dp1
S'_installed_files'
p2
(dp3
S'../Reconstruction/TTCalib/python'
p4
(dp5
S'../../../Reconstruction/TTCalib/python/TTCalibAlg/__init__.py'
p6
S'../../../InstallArea/python/TTCalibAlg/__init__.py'
p7
ssS'../../../Reconstruction/TTCalib/amd64_linux26/libTTCalibAlg.so'
p8
S'../../../InstallArea/amd64_linux26/lib/libTTCalibAlg.so'
p9
ssb.