(i__main__
LogFile
p0
(dp1
S'_installed_files'
p2
(dp3
S'../Simulation/ElecSimV3/UnpackingAlg/python'
p4
(dp5
S'../../../Simulation/ElecSimV3/UnpackingAlg/python/UnpackingAlg/__init__.py'
p6
S'../../../../InstallArea/python/UnpackingAlg/__init__.py'
p7
ssS'../../../Simulation/ElecSimV3/UnpackingAlg/amd64_linux26/libUnpackingAlg.so'
p8
S'../../../../InstallArea/amd64_linux26/lib/libUnpackingAlg.so'
p9
ssb.