(i__main__
LogFile
p0
(dp1
S'_installed_files'
p2
(dp3
S'../../../DataModel/ElecEvent/amd64_linux26/libElecEvent.so'
p4
S'../../../InstallArea/amd64_linux26/lib/libElecEvent.so'
p5
sS'../../DataModel/ElecEvent/Event'
p6
(dp7
S'../../../DataModel/ElecEvent/Event/SpmtElecAbcBlock.obj2doth'
p8
S'../../../InstallArea/include/Event/SpmtElecAbcBlock.obj2doth'
p9
sS'../../../DataModel/ElecEvent/Event/ElecFeeCrate.h'
p10
S'../../../InstallArea/include/Event/ElecFeeCrate.h'
p11
sS'../../../DataModel/ElecEvent/Event/SpmtElecEvent.h'
p12
S'../../../InstallArea/include/Event/SpmtElecEvent.h'
p13
sS'../../../DataModel/ElecEvent/Event/ElecFeeChannel.obj2doth'
p14
S'../../../InstallArea/include/Event/ElecFeeChannel.obj2doth'
p15
sS'../../../DataModel/ElecEvent/Event/ElecFeeChannel.h'
p16
S'../../../InstallArea/include/Event/ElecFeeChannel.h'
p17
sS'../../../DataModel/ElecEvent/Event/ElecEvent.obj2doth'
p18
S'../../../InstallArea/include/Event/ElecEvent.obj2doth'
p19
sS'../../../DataModel/ElecEvent/Event/SpmtElecAbcBlock.h'
p20
S'../../../InstallArea/include/Event/SpmtElecAbcBlock.h'
p21
sS'../../../DataModel/ElecEvent/Event/ElecFeeCrate.obj2doth'
p22
S'../../../InstallArea/include/Event/ElecFeeCrate.obj2doth'
p23
sS'../../../DataModel/ElecEvent/Event/SpmtElecEvent.obj2doth'
p24
S'../../../InstallArea/include/Event/SpmtElecEvent.obj2doth'
p25
sS'../../../DataModel/ElecEvent/Event/ElecHeader.obj2doth'
p26
S'../../../InstallArea/include/Event/ElecHeader.obj2doth'
p27
sS'../../../DataModel/ElecEvent/Event/ElecEvent.h'
p28
S'../../../InstallArea/include/Event/ElecEvent.h'
p29
sS'../../../DataModel/ElecEvent/Event/ElecHeader.h'
p30
S'../../../InstallArea/include/Event/ElecHeader.h'
p31
sssb.