(i__main__
LogFile
p0
(dp1
S'_installed_files'
p2
(dp3
S'../../../Simulation/DetSimV2/AnalysisCode/amd64_linux26/libAnalysisCode.so'
p4
S'../../../../InstallArea/amd64_linux26/lib/libAnalysisCode.so'
p5
ssb.