(i__main__
LogFile
p0
(dp1
S'_installed_files'
p2
(dp3
S'../Reconstruction/OMILREC/python'
p4
(dp5
S'../../../Reconstruction/OMILREC/python/OMILREC/__init__.py'
p6
S'../../../InstallArea/python/OMILREC/__init__.py'
p7
ssS'../../../Reconstruction/OMILREC/amd64_linux26/libOMILREC.so'
p8
S'../../../InstallArea/amd64_linux26/lib/libOMILREC.so'
p9
ssb.