(i__main__
LogFile
p0
(dp1
S'_installed_files'
p2
(dp3
S'../../../Simulation/ElecSimV3/WaveformSimAlg/amd64_linux26/libWaveformSimAlg.so'
p4
S'../../../../InstallArea/amd64_linux26/lib/libWaveformSimAlg.so'
p5
sS'../Simulation/ElecSimV3/WaveformSimAlg/python'
p6
(dp7
S'../../../Simulation/ElecSimV3/WaveformSimAlg/python/WaveformSimAlg/__init__.py'
p8
S'../../../../InstallArea/python/WaveformSimAlg/__init__.py'
p9
sssb.