(i__main__
LogFile
p0
(dp1
S'_installed_files'
p2
(dp3
S'../../DataModel/SimEventV2/Event'
p4
(dp5
S'../../../DataModel/SimEventV2/Event/SimTTHit.h'
p6
S'../../../InstallArea/include/Event/SimTTHit.h'
p7
sS'../../../DataModel/SimEventV2/Event/SimHeader.h'
p8
S'../../../InstallArea/include/Event/SimHeader.h'
p9
sS'../../../DataModel/SimEventV2/Event/SimTrack.h'
p10
S'../../../InstallArea/include/Event/SimTrack.h'
p11
sS'../../../DataModel/SimEventV2/Event/SimEvent.h'
p12
S'../../../InstallArea/include/Event/SimEvent.h'
p13
sS'../../../DataModel/SimEventV2/Event/SimPMTHit.h'
p14
S'../../../InstallArea/include/Event/SimPMTHit.h'
p15
ssS'../../../DataModel/SimEventV2/amd64_linux26/test_SimEvent_write.exe'
p16
S'../../../InstallArea/amd64_linux26/bin/test_SimEvent_write.exe'
p17
sS'../../../DataModel/SimEventV2/amd64_linux26/test_SimEvent_read.exe'
p18
S'../../../InstallArea/amd64_linux26/bin/test_SimEvent_read.exe'
p19
sS'../../../DataModel/SimEventV2/amd64_linux26/libSimEventV2.so'
p20
S'../../../InstallArea/amd64_linux26/lib/libSimEventV2.so'
p21
ssb.