(i__main__
LogFile
p0
(dp1
S'_installed_files'
p2
(dp3
S'../../../Simulation/ElecSimV3/ElecDataStruct/amd64_linux26/libElecDataStruct.so'
p4
S'../../../../InstallArea/amd64_linux26/lib/libElecDataStruct.so'
p5
sS'../../Simulation/ElecSimV3/ElecDataStruct/ElecDataStruct'
p6
(dp7
S'../../../Simulation/ElecSimV3/ElecDataStruct/ElecDataStruct/Event.h'
p8
S'../../../../InstallArea/include/ElecDataStruct/Event.h'
p9
sS'../../../Simulation/ElecSimV3/ElecDataStruct/ElecDataStruct/Time.h'
p10
S'../../../../InstallArea/include/ElecDataStruct/Time.h'
p11
sS'../../../Simulation/ElecSimV3/ElecDataStruct/ElecDataStruct/CircularBuffer.h'
p12
S'../../../../InstallArea/include/ElecDataStruct/CircularBuffer.h'
p13
sS'../../../Simulation/ElecSimV3/ElecDataStruct/ElecDataStruct/Hit.h'
p14
S'../../../../InstallArea/include/ElecDataStruct/Hit.h'
p15
sS'../../../Simulation/ElecSimV3/ElecDataStruct/ElecDataStruct/Pulse.h'
p16
S'../../../../InstallArea/include/ElecDataStruct/Pulse.h'
p17
sS'../../../Simulation/ElecSimV3/ElecDataStruct/ElecDataStruct/EventKeeper.h'
p18
S'../../../../InstallArea/include/ElecDataStruct/EventKeeper.h'
p19
ssS'../../../Simulation/ElecSimV3/ElecDataStruct/amd64_linux26/test_ElecData_CircularBuffer.exe'
p20
S'../../../../InstallArea/amd64_linux26/bin/test_ElecData_CircularBuffer.exe'
p21
ssb./ElecSimV3/ElecDataStruct/amd64_linux26/test_ElecData_CircularBuffer.exe'
p22
S'../../../../InstallArea/amd64_linux26/bin/test_ElecData_CircularBuffer.exe'
p23
ssb.