(i__main__
LogFile
p0
(dp1
S'_installed_files'
p2
(dp3
S'../../CommonSvc/BufferMemMgr/BufferMemMgr'
p4
(dp5
S'../../../CommonSvc/BufferMemMgr/BufferMemMgr/IDataMemMgr.h'
p6
S'../../../InstallArea/include/BufferMemMgr/IDataMemMgr.h'
p7
sS'../../../CommonSvc/BufferMemMgr/BufferMemMgr/EvtDataPtr.h'
p8
S'../../../InstallArea/include/BufferMemMgr/EvtDataPtr.h'
p9
ssS'../CommonSvc/BufferMemMgr/python'
p10
(dp11
S'../../../CommonSvc/BufferMemMgr/python/BufferMemMgr/__init__.py'
p12
S'../../../InstallArea/python/BufferMemMgr/__init__.py'
p13
ssS'../../../CommonSvc/BufferMemMgr/amd64_linux26/libBufferMemMgr.so'
p14
S'../../../InstallArea/amd64_linux26/lib/libBufferMemMgr.so'
p15
ssb.