(i__main__
LogFile
p0
(dp1
S'_installed_files'
p2
(dp3
S'../../../Simulation/ElecSimV3/ElecBufferMgrSvc/amd64_linux26/libElecBufferMgrSvc.so'
p4
S'../../../../InstallArea/amd64_linux26/lib/libElecBufferMgrSvc.so'
p5
sS'../../Simulation/ElecSimV3/ElecBufferMgrSvc/ElecBufferMgrSvc'
p6
(dp7
S'../../../Simulation/ElecSimV3/ElecBufferMgrSvc/ElecBufferMgrSvc/IElecBufferMgrSvc.h'
p8
S'../../../../InstallArea/include/ElecBufferMgrSvc/IElecBufferMgrSvc.h'
p9
sssb.