(i__main__
LogFile
p0
(dp1
S'_installed_files'
p2
(dp3
S'../../RootIO/RootIOTest/Event'
p4
(dp5
S'../../../RootIO/RootIOTest/Event/DummyTTHit.h'
p6
S'../../../InstallArea/include/Event/DummyTTHit.h'
p7
sS'../../../RootIO/RootIOTest/Event/DummyTrack.h'
p8
S'../../../InstallArea/include/Event/DummyTrack.h'
p9
sS'../../../RootIO/RootIOTest/Event/DummyHeader.h'
p10
S'../../../InstallArea/include/Event/DummyHeader.h'
p11
sS'../../../RootIO/RootIOTest/Event/DummyPMTHit.h'
p12
S'../../../InstallArea/include/Event/DummyPMTHit.h'
p13
sS'../../../RootIO/RootIOTest/Event/DummyEvent.h'
p14
S'../../../InstallArea/include/Event/DummyEvent.h'
p15
ssS'../../../RootIO/RootIOTest/amd64_linux26/libRootIOTest.so'
p16
S'../../../InstallArea/amd64_linux26/lib/libRootIOTest.so'
p17
ssb.