(i__main__
LogFile
p0
(dp1
S'_installed_files'
p2
(dp3
S'../../../Reconstruction/IntegralPmtRec/amd64_linux26/libIntegralPmtRec.so'
p4
S'../../../InstallArea/amd64_linux26/lib/libIntegralPmtRec.so'
p5
ssb.