(i__main__
LogFile
p0
(dp1
S'_installed_files'
p2
(dp3
S'../Reconstruction/PoolMuonRecTool/python'
p4
(dp5
S'../../../Reconstruction/PoolMuonRecTool/python/PoolMuonRecTool/__init__.py'
p6
S'../../../InstallArea/python/PoolMuonRecTool/__init__.py'
p7
ssS'../../../Reconstruction/PoolMuonRecTool/amd64_linux26/libPoolMuonRecTool.so'
p8
S'../../../InstallArea/amd64_linux26/lib/libPoolMuonRecTool.so'
p9
ssb.