(i__main__
LogFile
p0
(dp1
S'_installed_files'
p2
(dp3
S'../../DataModel/RecEvent/Event'
p4
(dp5
S'../../../DataModel/RecEvent/Event/CDTrackRecEvent.obj2doth'
p6
S'../../../InstallArea/include/Event/CDTrackRecEvent.obj2doth'
p7
sS'../../../DataModel/RecEvent/Event/CDRecEvent.obj2doth'
p8
S'../../../InstallArea/include/Event/CDRecEvent.obj2doth'
p9
sS'../../../DataModel/RecEvent/Event/CDTrackRecEvent.h'
p10
S'../../../InstallArea/include/Event/CDTrackRecEvent.h'
p11
sS'../../../DataModel/RecEvent/Event/WPRecEvent.h'
p12
S'../../../InstallArea/include/Event/WPRecEvent.h'
p13
sS'../../../DataModel/RecEvent/Event/RecHeader.h'
p14
S'../../../InstallArea/include/Event/RecHeader.h'
p15
sS'../../../DataModel/RecEvent/Event/RecTrack.h'
p16
S'../../../InstallArea/include/Event/RecTrack.h'
p17
sS'../../../DataModel/RecEvent/Event/TTRecEvent.h'
p18
S'../../../InstallArea/include/Event/TTRecEvent.h'
p19
sS'../../../DataModel/RecEvent/Event/RecHeader.obj2doth'
p20
S'../../../InstallArea/include/Event/RecHeader.obj2doth'
p21
sS'../../../DataModel/RecEvent/Event/WPRecEvent.obj2doth'
p22
S'../../../InstallArea/include/Event/WPRecEvent.obj2doth'
p23
sS'../../../DataModel/RecEvent/Event/TTRecEvent.obj2doth'
p24
S'../../../InstallArea/include/Event/TTRecEvent.obj2doth'
p25
sS'../../../DataModel/RecEvent/Event/CDRecEvent.h'
p26
S'../../../InstallArea/include/Event/CDRecEvent.h'
p27
sS'../../../DataModel/RecEvent/Event/RecTrack.obj2doth'
p28
S'../../../InstallArea/include/Event/RecTrack.obj2doth'
p29
ssS'../../../DataModel/RecEvent/amd64_linux26/libRecEvent.so'
p30
S'../../../InstallArea/amd64_linux26/lib/libRecEvent.so'
p31
ssb.