(i__main__
LogFile
p0
(dp1
S'_installed_files'
p2
(dp3
S'../Reconstruction/SpmtMuonRecTool/python'
p4
(dp5
S'../../../Reconstruction/SpmtMuonRecTool/python/SpmtMuonRecTool/__init__.py'
p6
S'../../../InstallArea/python/SpmtMuonRecTool/__init__.py'
p7
ssS'../../../Reconstruction/SpmtMuonRecTool/amd64_linux26/libSpmtMuonRecTool.so'
p8
S'../../../InstallArea/amd64_linux26/lib/libSpmtMuonRecTool.so'
p9
ssb.