(i__main__
LogFile
p0
(dp1
S'_installed_files'
p2
(dp3
S'../../Simulation/GenTools/GenTools'
p4
(dp5
S'../../../Simulation/GenTools/GenTools/IGenTool.h'
p6
S'../../../InstallArea/include/GenTools/IGenTool.h'
p7
sS'../../../Simulation/GenTools/GenTools/GenEventBuffer.h'
p8
S'../../../InstallArea/include/GenTools/GenEventBuffer.h'
p9
ssS'../../../Simulation/GenTools/amd64_linux26/libGenTools.so'
p10
S'../../../InstallArea/amd64_linux26/lib/libGenTools.so'
p11
ssb.