(i__main__
LogFile
p0
(dp1
S'_installed_files'
p2
(dp3
S'../../EventDisplay/JVisLib/JVisLib'
p4
(dp5
S'../../../EventDisplay/JVisLib/JVisLib/JVisTimer.h'
p6
S'../../../InstallArea/include/JVisLib/JVisTimer.h'
p7
sS'../../../EventDisplay/JVisLib/JVisLib/JVisOpMgr.h'
p8
S'../../../InstallArea/include/JVisLib/JVisOpMgr.h'
p9
sS'../../../EventDisplay/JVisLib/JVisLib/JVisOpTrack.h'
p10
S'../../../InstallArea/include/JVisLib/JVisOpTrack.h'
p11
sS'../../../EventDisplay/JVisLib/JVisLib/JVisEvtMgr.h'
p12
S'../../../InstallArea/include/JVisLib/JVisEvtMgr.h'
p13
sS'../../../EventDisplay/JVisLib/JVisLib/JVisStatus.h'
p14
S'../../../InstallArea/include/JVisLib/JVisStatus.h'
p15
sS'../../../EventDisplay/JVisLib/JVisLib/JVisTop.h'
p16
S'../../../InstallArea/include/JVisLib/JVisTop.h'
p17
sS'../../../EventDisplay/JVisLib/JVisLib/JVisGeom.h'
p18
S'../../../InstallArea/include/JVisLib/JVisGeom.h'
p19
ssS'../../../EventDisplay/JVisLib/amd64_linux26/libJVisLib.so'
p20
S'../../../InstallArea/amd64_linux26/lib/libJVisLib.so'
p21
ssb.