(i__main__
LogFile
p0
(dp1
S'_installed_files'
p2
(dp3
S'../../DataModel/EDMUtil/EDMUtil'
p4
(dp5
S'../../../DataModel/EDMUtil/EDMUtil/SmartRef.h'
p6
S'../../../InstallArea/include/EDMUtil/SmartRef.h'
p7
ssS'../../../DataModel/EDMUtil/amd64_linux26/libEDMUtil.so'
p8
S'../../../InstallArea/amd64_linux26/lib/libEDMUtil.so'
p9
ssb.