(i__main__
LogFile
p0
(dp1
S'_installed_files'
p2
(dp3
S'../../../DataModel/BaseEvent/amd64_linux26/libBaseEvent.so'
p4
S'../../../InstallArea/amd64_linux26/lib/libBaseEvent.so'
p5
sS'../../DataModel/BaseEvent/Event'
p6
(dp7
S'../../../DataModel/BaseEvent/Event/EventObject.obj2doth'
p8
S'../../../InstallArea/include/Event/EventObject.obj2doth'
p9
sS'../../../DataModel/BaseEvent/Event/EventObject.h'
p10
S'../../../InstallArea/include/Event/EventObject.h'
p11
sS'../../../DataModel/BaseEvent/Event/HeaderObject.obj2doth'
p12
S'../../../InstallArea/include/Event/HeaderObject.obj2doth'
p13
sS'../../../DataModel/BaseEvent/Event/HeaderObject.h'
p14
S'../../../InstallArea/include/Event/HeaderObject.h'
p15
sssb.