(i__main__
LogFile
p0
(dp1
S'_installed_files'
p2
(dp3
S'../../../Simulation/ElecSimV3/RootRandomSvc/amd64_linux26/libRootRandomSvc.so'
p4
S'../../../../InstallArea/amd64_linux26/lib/libRootRandomSvc.so'
p5
sS'../../Simulation/ElecSimV3/RootRandomSvc/RootRandomSvc'
p6
(dp7
S'../../../Simulation/ElecSimV3/RootRandomSvc/RootRandomSvc/IRootRandomSvc.h'
p8
S'../../../../InstallArea/include/RootRandomSvc/IRootRandomSvc.h'
p9
ssS'../Simulation/ElecSimV3/RootRandomSvc/python'
p10
(dp11
S'../../../Simulation/ElecSimV3/RootRandomSvc/python/RootRandomSvc/__init__.py'
p12
S'../../../../InstallArea/python/RootRandomSvc/__init__.py'
p13
sssb.