(i__main__
LogFile
p0
(dp1
S'_installed_files'
p2
(dp3
S'../Detector/Geometry/python'
p4
(dp5
S'../../../Detector/Geometry/python/Geometry/__init__.py'
p6
S'../../../InstallArea/python/Geometry/__init__.py'
p7
ssS'../../../Detector/Geometry/amd64_linux26/libGeometry.so'
p8
S'../../../InstallArea/amd64_linux26/lib/libGeometry.so'
p9
sS'../../Detector/Geometry/Geometry'
p10
(dp11
S'../../../Detector/Geometry/Geometry/GeoUtil.h'
p12
S'../../../InstallArea/include/Geometry/GeoUtil.h'
p13
sS'../../../Detector/Geometry/Geometry/TtGeom.h'
p14
S'../../../InstallArea/include/Geometry/TtGeom.h'
p15
sS'../../../Detector/Geometry/Geometry/CdGeom.h'
p16
S'../../../InstallArea/include/Geometry/CdGeom.h'
p17
sS'../../../Detector/Geometry/Geometry/PMTParamSvc.h'
p18
S'../../../InstallArea/include/Geometry/PMTParamSvc.h'
p19
sS'../../../Detector/Geometry/Geometry/WpGeom.h'
p20
S'../../../InstallArea/include/Geometry/WpGeom.h'
p21
sS'../../../Detector/Geometry/Geometry/PmtGeom.h'
p22
S'../../../InstallArea/include/Geometry/PmtGeom.h'
p23
sS'../../../Detector/Geometry/Geometry/RecGeomSvc.h'
p24
S'../../../InstallArea/include/Geometry/RecGeomSvc.h'
p25
sS'../../../Detector/Geometry/Geometry/TTGeomSvc.h'
p26
S'../../../InstallArea/include/Geometry/TTGeomSvc.h'
p27
sssb.