(i__main__
LogFile
p0
(dp1
S'_installed_files'
p2
(dp3
S'../../../Simulation/DetSimV2/DetSimAlg/amd64_linux26/libDetSimAlg.so'
p4
S'../../../../InstallArea/amd64_linux26/lib/libDetSimAlg.so'
p5
sS'../../Simulation/DetSimV2/DetSimAlg/DetSimAlg'
p6
(dp7
S'../../../Simulation/DetSimV2/DetSimAlg/DetSimAlg/IPMTElement.h'
p8
S'../../../../InstallArea/include/DetSimAlg/IPMTElement.h'
p9
sS'../../../Simulation/DetSimV2/DetSimAlg/DetSimAlg/MgrOfAnaElem.h'
p10
S'../../../../InstallArea/include/DetSimAlg/MgrOfAnaElem.h'
p11
sS'../../../Simulation/DetSimV2/DetSimAlg/DetSimAlg/IAnalysisElement.h'
p12
S'../../../../InstallArea/include/DetSimAlg/IAnalysisElement.h'
p13
sS'../../../Simulation/DetSimV2/DetSimAlg/DetSimAlg/DetSimAlg.h'
p14
S'../../../../InstallArea/include/DetSimAlg/DetSimAlg.h'
p15
sS'../../../Simulation/DetSimV2/DetSimAlg/DetSimAlg/IDetElementPos.h'
p16
S'../../../../InstallArea/include/DetSimAlg/IDetElementPos.h'
p17
sS'../../../Simulation/DetSimV2/DetSimAlg/DetSimAlg/IDetSimFactory.h'
p18
S'../../../../InstallArea/include/DetSimAlg/IDetSimFactory.h'
p19
sS'../../../Simulation/DetSimV2/DetSimAlg/DetSimAlg/IDetElement.h'
p20
S'../../../../InstallArea/include/DetSimAlg/IDetElement.h'
p21
sS'../../../Simulation/DetSimV2/DetSimAlg/DetSimAlg/ISensitiveDetectorElement.h'
p22
S'../../../../InstallArea/include/DetSimAlg/ISensitiveDetectorElement.h'
p23
sssb.