(i__main__
LogFile
p0
(dp1
S'_installed_files'
p2
(dp3
S'../../../Simulation/DetSimV2/CentralDetector/amd64_linux26/libCentralDetector.so'
p4
S'../../../../InstallArea/amd64_linux26/lib/libCentralDetector.so'
p5
ssb.