(i__main__
LogFile
p0
(dp1
S'_installed_files'
p2
(dp3
S'../Simulation/ElecSimV3/GlobalTimeSvc/python'
p4
(dp5
S'../../../Simulation/ElecSimV3/GlobalTimeSvc/python/GlobalTimeSvc/__init__.py'
p6
S'../../../../InstallArea/python/GlobalTimeSvc/__init__.py'
p7
ssS'../../Simulation/ElecSimV3/GlobalTimeSvc/GlobalTimeSvc'
p8
(dp9
S'../../../Simulation/ElecSimV3/GlobalTimeSvc/GlobalTimeSvc/IGlobalTimeSvc.h'
p10
S'../../../../InstallArea/include/GlobalTimeSvc/IGlobalTimeSvc.h'
p11
ssS'../../../Simulation/ElecSimV3/GlobalTimeSvc/amd64_linux26/libGlobalTimeSvc.so'
p12
S'../../../../InstallArea/amd64_linux26/lib/libGlobalTimeSvc.so'
p13
ssb.