(i__main__
LogFile
p0
(dp1
S'_installed_files'
p2
(dp3
S'../../../RootIO/RootIOUtil/amd64_linux26/libRootIOUtil.so'
p4
S'../../../InstallArea/amd64_linux26/lib/libRootIOUtil.so'
p5
sS'../../RootIO/RootIOUtil/RootIOUtil'
p6
(dp7
S'../../../RootIO/RootIOUtil/RootIOUtil/RootFileWriter.h'
p8
S'../../../InstallArea/include/RootIOUtil/RootFileWriter.h'
p9
sS'../../../RootIO/RootIOUtil/RootIOUtil/RootOutputFileManager.h'
p10
S'../../../InstallArea/include/RootIOUtil/RootOutputFileManager.h'
p11
sS'../../../RootIO/RootIOUtil/RootIOUtil/NavTreeList.h'
p12
S'../../../InstallArea/include/RootIOUtil/NavTreeList.h'
p13
sS'../../../RootIO/RootIOUtil/RootIOUtil/RootFileReader.h'
p14
S'../../../InstallArea/include/RootIOUtil/RootFileReader.h'
p15
sssb.