(i__main__
LogFile
p0
(dp1
S'_installed_files'
p2
(dp3
S'../../Simulation/ElecSimV3/PmtParamSvc/PmtParamSvc'
p4
(dp5
S'../../../Simulation/ElecSimV3/PmtParamSvc/PmtParamSvc/IPmtParamSvc.h'
p6
S'../../../../InstallArea/include/PmtParamSvc/IPmtParamSvc.h'
p7
ssS'../../../Simulation/ElecSimV3/PmtParamSvc/amd64_linux26/libPmtParamSvc.so'
p8
S'../../../../InstallArea/amd64_linux26/lib/libPmtParamSvc.so'
p9
sS'../Simulation/ElecSimV3/PmtParamSvc/python'
p10
(dp11
S'../../../Simulation/ElecSimV3/PmtParamSvc/python/PmtParamSvc/__init__.py'
p12
S'../../../../InstallArea/python/PmtParamSvc/__init__.py'
p13
sssb.