(i__main__
LogFile
p0
(dp1
S'_installed_files'
p2
(dp3
S'../../Reconstruction/RecWpMuonAlg/RecWpMuonAlg'
p4
(dp5
S'../../../Reconstruction/RecWpMuonAlg/RecWpMuonAlg/Params.h'
p6
S'../../../InstallArea/include/RecWpMuonAlg/Params.h'
p7
sS'../../../Reconstruction/RecWpMuonAlg/RecWpMuonAlg/IReconTool.h'
p8
S'../../../InstallArea/include/RecWpMuonAlg/IReconTool.h'
p9
sS'../../../Reconstruction/RecWpMuonAlg/RecWpMuonAlg/PmtProp.h'
p10
S'../../../InstallArea/include/RecWpMuonAlg/PmtProp.h'
p11
ssS'../../../Reconstruction/RecWpMuonAlg/amd64_linux26/libRecWpMuonAlg.so'
p12
S'../../../InstallArea/amd64_linux26/lib/libRecWpMuonAlg.so'
p13
ssb.