(i__main__
LogFile
p0
(dp1
S'_installed_files'
p2
(dp3
S'../../../Reconstruction/ConeMuonRecTool/amd64_linux26/libConeMuonRecTool.so'
p4
S'../../../InstallArea/amd64_linux26/lib/libConeMuonRecTool.so'
p5
sS'../Reconstruction/ConeMuonRecTool/python'
p6
(dp7
S'../../../Reconstruction/ConeMuonRecTool/python/ConeMuonRecTool/__init__.py'
p8
S'../../../InstallArea/python/ConeMuonRecTool/__init__.py'
p9
sssb.