(i__main__
LogFile
p0
(dp1
S'_installed_files'
p2
(dp3
S'../Reconstruction/RecTimeLikeAlg/python'
p4
(dp5
S'../../../Reconstruction/RecTimeLikeAlg/python/RecTimeLikeAlg/__init__.py'
p6
S'../../../InstallArea/python/RecTimeLikeAlg/__init__.py'
p7
ssS'../../../Reconstruction/RecTimeLikeAlg/amd64_linux26/libRecTimeLikeAlg.so'
p8
S'../../../InstallArea/amd64_linux26/lib/libRecTimeLikeAlg.so'
p9
ssb.