(i__main__
LogFile
p0
(dp1
S'_installed_files'
p2
(dp3
S'../../../Simulation/DetSimV2/TopTracker/amd64_linux26/libTopTracker.so'
p4
S'../../../../InstallArea/amd64_linux26/lib/libTopTracker.so'
p5
ssb.