(i__main__
LogFile
p0
(dp1
S'_installed_files'
p2
(dp3
S'../../../Generator/NuSolGen/amd64_linux26/libNuSolGen.so'
p4
S'../../../InstallArea/amd64_linux26/lib/libNuSolGen.so'
p5
sS'../Generator/NuSolGen/python'
p6
(dp7
S'../../../Generator/NuSolGen/python/NuSolGen/__init__.py'
p8
S'../../../InstallArea/python/NuSolGen/__init__.py'
p9
sS'../../../Generator/NuSolGen/python/NuSolGen/__main__.py'
p10
S'../../../InstallArea/python/NuSolGen/__main__.py'
p11
sssb.