(i__main__
LogFile
p0
(dp1
S'_installed_files'
p2
(dp3
S'../../DataModel/EvtNavigator/EvtNavigator'
p4
(dp5
S'../../../DataModel/EvtNavigator/EvtNavigator/EvtNavigator.h'
p6
S'../../../InstallArea/include/EvtNavigator/EvtNavigator.h'
p7
sS'../../../DataModel/EvtNavigator/EvtNavigator/NavBuffer.h'
p8
S'../../../InstallArea/include/EvtNavigator/NavBuffer.h'
p9
ssS'../../../DataModel/EvtNavigator/amd64_linux26/libEvtNavigator.so'
p10
S'../../../InstallArea/amd64_linux26/lib/libEvtNavigator.so'
p11
ssb.